target datalayout = "e-m:e-p270:32:32-p271:32:32-p272:64:64-i64:64-i128:128-f80:128-n8:16:32:64-S128"
target triple = "x86_64-unknown-linux-gnu"

%struct.Hmac = type { %union.wc_HmacHash, [36 x i32], [36 x i32], [16 x i32], ptr, i8, i8 }
%union.wc_HmacHash = type { %struct.wc_Sha3 }
%struct.wc_Sha3 = type { [25 x i64], [200 x i8], i8, ptr }

; Function Attrs: nounwind uwtable
define i32 @wc_HmacUpdate(ptr noundef %hmac, ptr noundef %msg, i32 noundef %length) #0 {
entry:
  %retval = alloca i32, align 4
  %hmac.addr = alloca ptr, align 8
  %msg.addr = alloca ptr, align 8
  %length.addr = alloca i32, align 4
  %ret = alloca i32, align 4
  store ptr %hmac, ptr %hmac.addr, align 8
  store ptr %msg, ptr %msg.addr, align 8
  store i32 %length, ptr %length.addr, align 4
  store i32 0, ptr %ret, align 4
  %0 = load ptr, ptr %hmac.addr, align 8
  %cmp = icmp eq ptr %0, null
  br i1 %cmp, label %if.then, label %lor.lhs.false

lor.lhs.false:                                    ; preds = %entry
  %1 = load ptr, ptr %msg.addr, align 8
  %cmp1 = icmp eq ptr %1, null
  br i1 %cmp1, label %land.lhs.true, label %if.end

land.lhs.true:                                    ; preds = %lor.lhs.false
  %2 = load i32, ptr %length.addr, align 4
  %cmp2 = icmp ugt i32 %2, 0
  br i1 %cmp2, label %if.then, label %if.end

if.then:                                          ; preds = %land.lhs.true, %entry
  store i32 -173, ptr %retval, align 4
  br label %return

if.end:                                           ; preds = %land.lhs.true, %lor.lhs.false
  %3 = load ptr, ptr %hmac.addr, align 8
  %innerHashKeyed = getelementptr inbounds %struct.Hmac, ptr %3, i32 0, i32 6
  %4 = load i8, ptr %innerHashKeyed, align 1
  %tobool = icmp ne i8 %4, 0
  br i1 %tobool, label %if.end7, label %if.then3

if.then3:                                         ; preds = %if.end
  %5 = load ptr, ptr %hmac.addr, align 8
  %call = call i32 @HmacKeyInnerHash(ptr noundef %5)
  store i32 %call, ptr %ret, align 4
  %6 = load i32, ptr %ret, align 4
  %cmp4 = icmp ne i32 %6, 0
  br i1 %cmp4, label %if.then5, label %if.end6

if.then5:                                         ; preds = %if.then3
  %7 = load i32, ptr %ret, align 4
  store i32 %7, ptr %retval, align 4
  br label %return

if.end6:                                          ; preds = %if.then3
  br label %if.end7

if.end7:                                          ; preds = %if.end6, %if.end
  %8 = load ptr, ptr %hmac.addr, align 8
  %macType = getelementptr inbounds %struct.Hmac, ptr %8, i32 0, i32 5
  %9 = load i8, ptr %macType, align 8
  %conv = zext i8 %9 to i32
  switch i32 %conv, label %sw.default [
    i32 3, label %sw.bb
    i32 4, label %sw.bb9
    i32 5, label %sw.bb12
    i32 6, label %sw.bb15
    i32 7, label %sw.bb18
    i32 8, label %sw.bb21
    i32 10, label %sw.bb24
    i32 11, label %sw.bb27
    i32 12, label %sw.bb30
    i32 13, label %sw.bb33
  ]

sw.bb:                                            ; preds = %if.end7
  %10 = load ptr, ptr %hmac.addr, align 8
  %hash = getelementptr inbounds %struct.Hmac, ptr %10, i32 0, i32 0
  %11 = load ptr, ptr %msg.addr, align 8
  %12 = load i32, ptr %length.addr, align 4
  %call8 = call i32 @wc_Md5Update(ptr noundef %hash, ptr noundef %11, i32 noundef %12)
  store i32 %call8, ptr %ret, align 4
  br label %sw.epilog

sw.bb9:                                           ; preds = %if.end7
  %13 = load ptr, ptr %hmac.addr, align 8
  %hash10 = getelementptr inbounds %struct.Hmac, ptr %13, i32 0, i32 0
  %14 = load ptr, ptr %msg.addr, align 8
  %15 = load i32, ptr %length.addr, align 4
  %call11 = call i32 @wc_ShaUpdate(ptr noundef %hash10, ptr noundef %14, i32 noundef %15)
  store i32 %call11, ptr %ret, align 4
  br label %sw.epilog

sw.bb12:                                          ; preds = %if.end7
  %16 = load ptr, ptr %hmac.addr, align 8
  %hash13 = getelementptr inbounds %struct.Hmac, ptr %16, i32 0, i32 0
  %17 = load ptr, ptr %msg.addr, align 8
  %18 = load i32, ptr %length.addr, align 4
  %call14 = call i32 @wc_Sha224Update(ptr noundef %hash13, ptr noundef %17, i32 noundef %18)
  store i32 %call14, ptr %ret, align 4
  br label %sw.epilog

sw.bb15:                                          ; preds = %if.end7
  %19 = load ptr, ptr %hmac.addr, align 8
  %hash16 = getelementptr inbounds %struct.Hmac, ptr %19, i32 0, i32 0
  %20 = load ptr, ptr %msg.addr, align 8
  %21 = load i32, ptr %length.addr, align 4
  %call17 = call i32 @wc_Sha256Update(ptr noundef %hash16, ptr noundef %20, i32 noundef %21)
  store i32 %call17, ptr %ret, align 4
  br label %sw.epilog

sw.bb18:                                          ; preds = %if.end7
  %22 = load ptr, ptr %hmac.addr, align 8
  %hash19 = getelementptr inbounds %struct.Hmac, ptr %22, i32 0, i32 0
  %23 = load ptr, ptr %msg.addr, align 8
  %24 = load i32, ptr %length.addr, align 4
  %call20 = call i32 @wc_Sha384Update(ptr noundef %hash19, ptr noundef %23, i32 noundef %24)
  store i32 %call20, ptr %ret, align 4
  br label %sw.epilog

sw.bb21:                                          ; preds = %if.end7
  %25 = load ptr, ptr %hmac.addr, align 8
  %hash22 = getelementptr inbounds %struct.Hmac, ptr %25, i32 0, i32 0
  %26 = load ptr, ptr %msg.addr, align 8
  %27 = load i32, ptr %length.addr, align 4
  %call23 = call i32 @wc_Sha512Update(ptr noundef %hash22, ptr noundef %26, i32 noundef %27)
  store i32 %call23, ptr %ret, align 4
  br label %sw.epilog

sw.bb24:                                          ; preds = %if.end7
  %28 = load ptr, ptr %hmac.addr, align 8
  %hash25 = getelementptr inbounds %struct.Hmac, ptr %28, i32 0, i32 0
  %29 = load ptr, ptr %msg.addr, align 8
  %30 = load i32, ptr %length.addr, align 4
  %call26 = call i32 @wc_Sha3_224_Update(ptr noundef %hash25, ptr noundef %29, i32 noundef %30)
  store i32 %call26, ptr %ret, align 4
  br label %sw.epilog

sw.bb27:                                          ; preds = %if.end7
  %31 = load ptr, ptr %hmac.addr, align 8
  %hash28 = getelementptr inbounds %struct.Hmac, ptr %31, i32 0, i32 0
  %32 = load ptr, ptr %msg.addr, align 8
  %33 = load i32, ptr %length.addr, align 4
  %call29 = call i32 @wc_Sha3_256_Update(ptr noundef %hash28, ptr noundef %32, i32 noundef %33)
  store i32 %call29, ptr %ret, align 4
  br label %sw.epilog

sw.bb30:                                          ; preds = %if.end7
  %34 = load ptr, ptr %hmac.addr, align 8
  %hash31 = getelementptr inbounds %struct.Hmac, ptr %34, i32 0, i32 0
  %35 = load ptr, ptr %msg.addr, align 8
  %36 = load i32, ptr %length.addr, align 4
  %call32 = call i32 @wc_Sha3_384_Update(ptr noundef %hash31, ptr noundef %35, i32 noundef %36)
  store i32 %call32, ptr %ret, align 4
  br label %sw.epilog

sw.bb33:                                          ; preds = %if.end7
  %37 = load ptr, ptr %hmac.addr, align 8
  %hash34 = getelementptr inbounds %struct.Hmac, ptr %37, i32 0, i32 0
  %38 = load ptr, ptr %msg.addr, align 8
  %39 = load i32, ptr %length.addr, align 4
  %call35 = call i32 @wc_Sha3_512_Update(ptr noundef %hash34, ptr noundef %38, i32 noundef %39)
  store i32 %call35, ptr %ret, align 4
  br label %sw.epilog

sw.default:                                       ; preds = %if.end7
  br label %sw.epilog

sw.epilog:                                        ; preds = %sw.default, %sw.bb33, %sw.bb30, %sw.bb27, %sw.bb24, %sw.bb21, %sw.bb18, %sw.bb15, %sw.bb12, %sw.bb9, %sw.bb
  %40 = load i32, ptr %ret, align 4
  store i32 %40, ptr %retval, align 4
  br label %return

return:                                           ; preds = %sw.epilog, %if.then5, %if.then
  %41 = load i32, ptr %retval, align 4
  ret i32 %41
}