; Function Attrs: nounwind uwtable
define i32 @wc_HmacUpdate(ptr noundef %hmac, ptr noundef %msg, i32 noundef %length) local_unnamed_addr #1 {
entry:
  %cmp = icmp eq ptr %hmac, null
  br i1 %cmp, label %return, label %lor.lhs.false

lor.lhs.false:                                    ; preds = %entry
  %cmp1 = icmp eq ptr %msg, null
  %cmp2 = icmp ne i32 %length, 0
  %or.cond = and i1 %cmp1, %cmp2
  br i1 %or.cond, label %return, label %if.end

if.end:                                           ; preds = %lor.lhs.false
  %innerHashKeyed = getelementptr inbounds nuw i8, ptr %hmac, i64 777
  %0 = load i8, ptr %innerHashKeyed, align 1
  %tobool.not = icmp eq i8 %0, 0
  br i1 %tobool.not, label %if.then3, label %if.end7

if.then3:                                         ; preds = %if.end
  %call = tail call fastcc i32 @HmacKeyInnerHash(ptr noundef %hmac)
  %cmp4.not = icmp eq i32 %call, 0
  br i1 %cmp4.not, label %if.end7, label %return

if.end7:                                          ; preds = %if.then3, %if.end
  %macType = getelementptr inbounds nuw i8, ptr %hmac, i64 776
  %1 = load i8, ptr %macType, align 8
  switch i8 %1, label %return [
    i8 3, label %sw.bb
    i8 4, label %sw.bb9
    i8 5, label %sw.bb12
    i8 6, label %sw.bb15
    i8 7, label %sw.bb18
    i8 8, label %sw.bb21
    i8 10, label %sw.bb24
    i8 11, label %sw.bb27
    i8 12, label %sw.bb30
    i8 13, label %sw.bb33
  ]

sw.bb:                                            ; preds = %if.end7
  %call8 = tail call i32 @wc_Md5Update(ptr noundef nonnull %hmac, ptr noundef %msg, i32 noundef %length) #8
  br label %return

sw.bb9:                                           ; preds = %if.end7
  %call11 = tail call i32 @wc_ShaUpdate(ptr noundef nonnull %hmac, ptr noundef %msg, i32 noundef %length) #8
  br label %return

sw.bb12:                                          ; preds = %if.end7
  %call14 = tail call i32 @wc_Sha224Update(ptr noundef nonnull %hmac, ptr noundef %msg, i32 noundef %length) #8
  br label %return

sw.bb15:                                          ; preds = %if.end7
  %call17 = tail call i32 @wc_Sha256Update(ptr noundef nonnull %hmac, ptr noundef %msg, i32 noundef %length) #8
  br label %return

sw.bb18:                                          ; preds = %if.end7
  %call20 = tail call i32 @wc_Sha384Update(ptr noundef nonnull %hmac, ptr noundef %msg, i32 noundef %length) #8
  br label %return

sw.bb21:                                          ; preds = %if.end7
  %call23 = tail call i32 @wc_Sha512Update(ptr noundef nonnull %hmac, ptr noundef %msg, i32 noundef %length) #8
  br label %return

sw.bb24:                                          ; preds = %if.end7
  %call26 = tail call i32 @wc_Sha3_224_Update(ptr noundef nonnull %hmac, ptr noundef %msg, i32 noundef %length) #8
  br label %return

sw.bb27:                                          ; preds = %if.end7
  %call29 = tail call i32 @wc_Sha3_256_Update(ptr noundef nonnull %hmac, ptr noundef %msg, i32 noundef %length) #8
  br label %return

sw.bb30:                                          ; preds = %if.end7
  %call32 = tail call i32 @wc_Sha3_384_Update(ptr noundef nonnull %hmac, ptr noundef %msg, i32 noundef %length) #8
  br label %return

sw.bb33:                                          ; preds = %if.end7
  %call35 = tail call i32 @wc_Sha3_512_Update(ptr noundef nonnull %hmac, ptr noundef %msg, i32 noundef %length) #8
  br label %return

return:                                           ; preds = %sw.bb, %sw.bb9, %sw.bb12, %sw.bb15, %sw.bb18, %sw.bb21, %sw.bb24, %sw.bb27, %sw.bb30, %sw.bb33, %if.end7, %if.then3, %entry, %lor.lhs.false
  %retval.0 = phi i32 [ -173, %lor.lhs.false ], [ -173, %entry ], [ %call, %if.then3 ], [ 0, %if.end7 ], [ %call35, %sw.bb33 ], [ %call32, %sw.bb30 ], [ %call29, %sw.bb27 ], [ %call26, %sw.bb24 ], [ %call23, %sw.bb21 ], [ %call20, %sw.bb18 ], [ %call17, %sw.bb15 ], [ %call14, %sw.bb12 ], [ %call11, %sw.bb9 ], [ %call8, %sw.bb ]
  ret i32 %retval.0
}